target datalayout = "e-m:e-p270:32:32-p271:32:32-p272:64:64-i64:64-i128:128-f80:128-n8:16:32:64-S128"
target triple = "x86_64-unknown-linux-gnu"

%class.btDiscreteDynamicsWorld = type <{ %class.btDynamicsWorld, %class.btAlignedObjectArray.0, ptr, ptr, ptr, %class.btAlignedObjectArray.0, %class.btAlignedObjectArray.4, %class.btVector3, float, float, i8, i8, i8, i8, [4 x i8], %class.btAlignedObjectArray.8, i32, i8, [3 x i8], %class.btAlignedObjectArray.12, %class.btSpinMutex, [4 x i8] }>
%class.btDynamicsWorld = type { %class.btCollisionWorld.base, ptr, ptr, ptr, %struct.btContactSolverInfo }
%class.btCollisionWorld.base = type <{ ptr, %class.btAlignedObjectArray, ptr, %struct.btDispatcherInfo, ptr, ptr, i8 }>
%class.btAlignedObjectArray = type <{ %class.btAlignedAllocator, [3 x i8], i32, i32, [4 x i8], ptr, i8, [7 x i8] }>
%class.btAlignedAllocator = type { i8 }
%struct.btDispatcherInfo = type <{ float, i32, i32, float, i8, [7 x i8], ptr, i8, i8, i8, i8, float, i8, [3 x i8], float, i8, [7 x i8] }>
%struct.btContactSolverInfo = type { %struct.btContactSolverInfoData }
%struct.btContactSolverInfoData = type { float, float, float, float, float, i32, float, float, float, float, float, float, float, float, float, float, i32, float, float, float, float, float, i32, i32, i32, float, float, float, float, i8, i8, i32, i32 }
%class.btAlignedObjectArray.0 = type <{ %class.btAlignedAllocator.1, [3 x i8], i32, i32, [4 x i8], ptr, i8, [7 x i8] }>
%class.btAlignedAllocator.1 = type { i8 }
%class.btAlignedObjectArray.4 = type <{ %class.btAlignedAllocator.5, [3 x i8], i32, i32, [4 x i8], ptr, i8, [7 x i8] }>
%class.btAlignedAllocator.5 = type { i8 }
%class.btVector3 = type { [4 x float] }
%class.btAlignedObjectArray.8 = type <{ %class.btAlignedAllocator.9, [3 x i8], i32, i32, [4 x i8], ptr, i8, [7 x i8] }>
%class.btAlignedAllocator.9 = type { i8 }
%class.btAlignedObjectArray.12 = type <{ %class.btAlignedAllocator.13, [3 x i8], i32, i32, [4 x i8], ptr, i8, [7 x i8] }>
%class.btAlignedAllocator.13 = type { i8 }
%class.btSpinMutex = type { i32 }
%class.btCollisionWorld = type <{ ptr, %class.btAlignedObjectArray, ptr, %struct.btDispatcherInfo, ptr, ptr, i8, [7 x i8] }>
%class.CProfileSample = type { i8 }

@.str.1 = private unnamed_addr constant [29 x i8] c"internalSingleStepSimulation\00", align 1
@.str.2 = private unnamed_addr constant [14 x i8] c"updateActions\00", align 1

; Function Attrs: mustprogress nounwind uwtable
define linkonce_odr dso_local noundef nonnull align 8 dereferenceable(8) ptr @_ZN20btAlignedObjectArrayIP17btActionInterfaceEixEi(ptr noundef nonnull align 8 dereferenceable(25) %this, i32 noundef %n) #1 comdat align 2 {
entry:
  %this.addr = alloca ptr, align 8
  %n.addr = alloca i32, align 4
  store ptr %this, ptr %this.addr, align 8
  store i32 %n, ptr %n.addr, align 4
  %this1 = load ptr, ptr %this.addr, align 8
  %m_data = getelementptr inbounds %class.btAlignedObjectArray.8, ptr %this1, i32 0, i32 5
  %0 = load ptr, ptr %m_data, align 8
  %1 = load i32, ptr %n.addr, align 4
  %idxprom = sext i32 %1 to i64
  %arrayidx = getelementptr inbounds ptr, ptr %0, i64 %idxprom
  ret ptr %arrayidx
}

; Function Attrs: mustprogress nounwind uwtable
define linkonce_odr dso_local noundef i32 @_ZNK20btAlignedObjectArrayIP17btActionInterfaceE4sizeEv(ptr noundef nonnull align 8 dereferenceable(25) %this) #1 comdat align 2 {
entry:
  %this.addr = alloca ptr, align 8
  store ptr %this, ptr %this.addr, align 8
  %this1 = load ptr, ptr %this.addr, align 8
  %m_size = getelementptr inbounds %class.btAlignedObjectArray.8, ptr %this1, i32 0, i32 2
  %0 = load i32, ptr %m_size, align 4
  ret i32 %0
}

; Function Attrs: mustprogress uwtable
define dso_local void @_ZN23btDiscreteDynamicsWorld13updateActionsEf(ptr noundef nonnull align 8 dereferenceable(508) %this, float noundef %timeStep) #2 align 2 personality ptr @__gxx_personality_v0 {
entry:
  %this.addr = alloca ptr, align 8
  %timeStep.addr = alloca float, align 4
  %__profile = alloca %class.CProfileSample, align 1
  %i = alloca i32, align 4
  %exn.slot = alloca ptr, align 8
  %ehselector.slot = alloca i32, align 4
  store ptr %this, ptr %this.addr, align 8
  store float %timeStep, ptr %timeStep.addr, align 4
  %this1 = load ptr, ptr %this.addr, align 8
  call void @_ZN14CProfileSampleC1EPKc(ptr noundef nonnull align 1 dereferenceable(1) %__profile, ptr noundef @.str.2)
  store i32 0, ptr %i, align 4
  br label %for.cond

for.cond:                                         ; preds = %for.inc, %entry
  %0 = load i32, ptr %i, align 4
  %m_actions = getelementptr inbounds %class.btDiscreteDynamicsWorld, ptr %this1, i32 0, i32 15
  %call = invoke noundef i32 @_ZNK20btAlignedObjectArrayIP17btActionInterfaceE4sizeEv(ptr noundef nonnull align 8 dereferenceable(25) %m_actions)
          to label %invoke.cont unwind label %lpad

invoke.cont:                                      ; preds = %for.cond
  %cmp = icmp slt i32 %0, %call
  br i1 %cmp, label %for.body, label %for.end

for.body:                                         ; preds = %invoke.cont
  %m_actions2 = getelementptr inbounds %class.btDiscreteDynamicsWorld, ptr %this1, i32 0, i32 15
  %1 = load i32, ptr %i, align 4
  %call4 = invoke noundef nonnull align 8 dereferenceable(8) ptr @_ZN20btAlignedObjectArrayIP17btActionInterfaceEixEi(ptr noundef nonnull align 8 dereferenceable(25) %m_actions2, i32 noundef %1)
          to label %invoke.cont3 unwind label %lpad

invoke.cont3:                                     ; preds = %for.body
  %2 = load ptr, ptr %call4, align 8
  %3 = load float, ptr %timeStep.addr, align 4
  %vtable = load ptr, ptr %2, align 8
  %vfn = getelementptr inbounds ptr, ptr %vtable, i64 2
  %4 = load ptr, ptr %vfn, align 8
  invoke void %4(ptr noundef nonnull align 8 dereferenceable(8) %2, ptr noundef %this1, float noundef %3)
          to label %invoke.cont5 unwind label %lpad

invoke.cont5:                                     ; preds = %invoke.cont3
  br label %for.inc

for.inc:                                          ; preds = %invoke.cont5
  %5 = load i32, ptr %i, align 4
  %inc = add nsw i32 %5, 1
  store i32 %inc, ptr %i, align 4
  br label %for.cond, !llvm.loop !14

lpad:                                             ; preds = %invoke.cont3, %for.body, %for.cond
  %6 = landingpad { ptr, i32 }
          cleanup
  %7 = extractvalue { ptr, i32 } %6, 0
  store ptr %7, ptr %exn.slot, align 8
  %8 = extractvalue { ptr, i32 } %6, 1
  store i32 %8, ptr %ehselector.slot, align 4
  call void @_ZN14CProfileSampleD1Ev(ptr noundef nonnull align 1 dereferenceable(1) %__profile) #12
  br label %eh.resume

for.end:                                          ; preds = %invoke.cont
  call void @_ZN14CProfileSampleD1Ev(ptr noundef nonnull align 1 dereferenceable(1) %__profile) #12
  ret void

eh.resume:                                        ; preds = %lpad
  %exn = load ptr, ptr %exn.slot, align 8
  %sel = load i32, ptr %ehselector.slot, align 4
  %lpad.val = insertvalue { ptr, i32 } poison, ptr %exn, 0
  %lpad.val6 = insertvalue { ptr, i32 } %lpad.val, i32 %sel, 1
  resume { ptr, i32 } %lpad.val6
}

; Function Attrs: mustprogress nounwind uwtable
define linkonce_odr dso_local noundef nonnull align 4 dereferenceable(128) ptr @_ZN15btDynamicsWorld13getSolverInfoEv(ptr noundef nonnull align 8 dereferenceable(280) %this) #1 comdat align 2 {
entry:
  %this.addr = alloca ptr, align 8
  store ptr %this, ptr %this.addr, align 8
  %this1 = load ptr, ptr %this.addr, align 8
  %m_solverInfo = getelementptr inbounds %class.btDynamicsWorld, ptr %this1, i32 0, i32 4
  ret ptr %m_solverInfo
}

; Function Attrs: mustprogress nounwind uwtable
define linkonce_odr dso_local noundef nonnull align 8 dereferenceable(49) ptr @_ZN16btCollisionWorld15getDispatchInfoEv(ptr noundef nonnull align 8 dereferenceable(121) %this) #1 comdat align 2 {
entry:
  %this.addr = alloca ptr, align 8
  store ptr %this, ptr %this.addr, align 8
  %this1 = load ptr, ptr %this.addr, align 8
  %m_dispatchInfo = getelementptr inbounds %class.btCollisionWorld, ptr %this1, i32 0, i32 3
  ret ptr %m_dispatchInfo
}

; Function Attrs: mustprogress uwtable
define dso_local void @_ZN23btDiscreteDynamicsWorld28internalSingleStepSimulationEf(ptr noundef nonnull align 8 dereferenceable(508) %this, float noundef %timeStep) unnamed_addr #2 align 2 personality ptr @__gxx_personality_v0 {
entry:
  %this.addr = alloca ptr, align 8
  %timeStep.addr = alloca float, align 4
  %__profile = alloca %class.CProfileSample, align 1
  %exn.slot = alloca ptr, align 8
  %ehselector.slot = alloca i32, align 4
  %dispatchInfo = alloca ptr, align 8
  store ptr %this, ptr %this.addr, align 8
  store float %timeStep, ptr %timeStep.addr, align 4
  %this1 = load ptr, ptr %this.addr, align 8
  call void @_ZN14CProfileSampleC1EPKc(ptr noundef nonnull align 1 dereferenceable(1) %__profile, ptr noundef @.str.1)
  %m_internalPreTickCallback = getelementptr inbounds %class.btDynamicsWorld, ptr %this1, i32 0, i32 2
  %0 = load ptr, ptr %m_internalPreTickCallback, align 8
  %cmp = icmp ne ptr null, %0
  br i1 %cmp, label %if.then, label %if.end

if.then:                                          ; preds = %entry
  %m_internalPreTickCallback2 = getelementptr inbounds %class.btDynamicsWorld, ptr %this1, i32 0, i32 2
  %1 = load ptr, ptr %m_internalPreTickCallback2, align 8
  %2 = load float, ptr %timeStep.addr, align 4
  invoke void %1(ptr noundef %this1, float noundef %2)
          to label %invoke.cont unwind label %lpad

invoke.cont:                                      ; preds = %if.then
  br label %if.end

lpad:                                             ; preds = %if.then34, %invoke.cont29, %invoke.cont28, %invoke.cont25, %invoke.cont21, %invoke.cont18, %invoke.cont17, %invoke.cont14, %invoke.cont11, %invoke.cont7, %invoke.cont4, %invoke.cont3, %if.end, %if.then
  %3 = landingpad { ptr, i32 }
          cleanup
  %4 = extractvalue { ptr, i32 } %3, 0
  store ptr %4, ptr %exn.slot, align 8
  %5 = extractvalue { ptr, i32 } %3, 1
  store i32 %5, ptr %ehselector.slot, align 4
  call void @_ZN14CProfileSampleD1Ev(ptr noundef nonnull align 1 dereferenceable(1) %__profile) #12
  br label %eh.resume

if.end:                                           ; preds = %invoke.cont, %entry
  %6 = load float, ptr %timeStep.addr, align 4
  %vtable = load ptr, ptr %this1, align 8
  %vfn = getelementptr inbounds ptr, ptr %vtable, i64 36
  %7 = load ptr, ptr %vfn, align 8
  invoke void %7(ptr noundef nonnull align 8 dereferenceable(508) %this1, float noundef %6)
          to label %invoke.cont3 unwind label %lpad

invoke.cont3:                                     ; preds = %if.end
  %call = invoke noundef nonnull align 8 dereferenceable(49) ptr @_ZN16btCollisionWorld15getDispatchInfoEv(ptr noundef nonnull align 8 dereferenceable(121) %this1)
          to label %invoke.cont4 unwind label %lpad

invoke.cont4:                                     ; preds = %invoke.cont3
  store ptr %call, ptr %dispatchInfo, align 8
  %8 = load float, ptr %timeStep.addr, align 4
  %9 = load ptr, ptr %dispatchInfo, align 8
  %m_timeStep = getelementptr inbounds %struct.btDispatcherInfo, ptr %9, i32 0, i32 0
  store float %8, ptr %m_timeStep, align 8
  %10 = load ptr, ptr %dispatchInfo, align 8
  %m_stepCount = getelementptr inbounds %struct.btDispatcherInfo, ptr %10, i32 0, i32 1
  store i32 0, ptr %m_stepCount, align 4
  %vtable5 = load ptr, ptr %this1, align 8
  %vfn6 = getelementptr inbounds ptr, ptr %vtable5, i64 5
  %11 = load ptr, ptr %vfn6, align 8
  %call8 = invoke noundef ptr %11(ptr noundef nonnull align 8 dereferenceable(121) %this1)
          to label %invoke.cont7 unwind label %lpad

invoke.cont7:                                     ; preds = %invoke.cont4
  %12 = load ptr, ptr %dispatchInfo, align 8
  %m_debugDraw = getelementptr inbounds %struct.btDispatcherInfo, ptr %12, i32 0, i32 6
  store ptr %call8, ptr %m_debugDraw, align 8
  %13 = load float, ptr %timeStep.addr, align 4
  %vtable9 = load ptr, ptr %this1, align 8
  %vfn10 = getelementptr inbounds ptr, ptr %vtable9, i64 41
  %14 = load ptr, ptr %vfn10, align 8
  invoke void %14(ptr noundef nonnull align 8 dereferenceable(508) %this1, float noundef %13)
          to label %invoke.cont11 unwind label %lpad

invoke.cont11:                                    ; preds = %invoke.cont7
  %vtable12 = load ptr, ptr %this1, align 8
  %vfn13 = getelementptr inbounds ptr, ptr %vtable12, i64 12
  %15 = load ptr, ptr %vfn13, align 8
  invoke void %15(ptr noundef nonnull align 8 dereferenceable(121) %this1)
          to label %invoke.cont14 unwind label %lpad

invoke.cont14:                                    ; preds = %invoke.cont11
  %vtable15 = load ptr, ptr %this1, align 8
  %vfn16 = getelementptr inbounds ptr, ptr %vtable15, i64 38
  %16 = load ptr, ptr %vfn16, align 8
  invoke void %16(ptr noundef nonnull align 8 dereferenceable(508) %this1)
          to label %invoke.cont17 unwind label %lpad

invoke.cont17:                                    ; preds = %invoke.cont14
  %17 = load float, ptr %timeStep.addr, align 4
  %call19 = invoke noundef nonnull align 4 dereferenceable(128) ptr @_ZN15btDynamicsWorld13getSolverInfoEv(ptr noundef nonnull align 8 dereferenceable(280) %this1)
          to label %invoke.cont18 unwind label %lpad

invoke.cont18:                                    ; preds = %invoke.cont17
  %m_timeStep20 = getelementptr inbounds %struct.btContactSolverInfoData, ptr %call19, i32 0, i32 3
  store float %17, ptr %m_timeStep20, align 4
  %call22 = invoke noundef nonnull align 4 dereferenceable(128) ptr @_ZN15btDynamicsWorld13getSolverInfoEv(ptr noundef nonnull align 8 dereferenceable(280) %this1)
          to label %invoke.cont21 unwind label %lpad

invoke.cont21:                                    ; preds = %invoke.cont18
  %vtable23 = load ptr, ptr %this1, align 8
  %vfn24 = getelementptr inbounds ptr, ptr %vtable23, i64 43
  %18 = load ptr, ptr %vfn24, align 8
  invoke void %18(ptr noundef nonnull align 8 dereferenceable(508) %this1, ptr noundef nonnull align 4 dereferenceable(128) %call22)
          to label %invoke.cont25 unwind label %lpad

invoke.cont25:                                    ; preds = %invoke.cont21
  %19 = load float, ptr %timeStep.addr, align 4
  %vtable26 = load ptr, ptr %this1, align 8
  %vfn27 = getelementptr inbounds ptr, ptr %vtable26, i64 37
  %20 = load ptr, ptr %vfn27, align 8
  invoke void %20(ptr noundef nonnull align 8 dereferenceable(508) %this1, float noundef %19)
          to label %invoke.cont28 unwind label %lpad

invoke.cont28:                                    ; preds = %invoke.cont25
  %21 = load float, ptr %timeStep.addr, align 4
  invoke void @_ZN23btDiscreteDynamicsWorld13updateActionsEf(ptr noundef nonnull align 8 dereferenceable(508) %this1, float noundef %21)
          to label %invoke.cont29 unwind label %lpad

invoke.cont29:                                    ; preds = %invoke.cont28
  %22 = load float, ptr %timeStep.addr, align 4
  %vtable30 = load ptr, ptr %this1, align 8
  %vfn31 = getelementptr inbounds ptr, ptr %vtable30, i64 39
  %23 = load ptr, ptr %vfn31, align 8
  invoke void %23(ptr noundef nonnull align 8 dereferenceable(508) %this1, float noundef %22)
          to label %invoke.cont32 unwind label %lpad

invoke.cont32:                                    ; preds = %invoke.cont29
  %m_internalTickCallback = getelementptr inbounds %class.btDynamicsWorld, ptr %this1, i32 0, i32 1
  %24 = load ptr, ptr %m_internalTickCallback, align 8
  %cmp33 = icmp ne ptr null, %24
  br i1 %cmp33, label %if.then34, label %if.end37

if.then34:                                        ; preds = %invoke.cont32
  %m_internalTickCallback35 = getelementptr inbounds %class.btDynamicsWorld, ptr %this1, i32 0, i32 1
  %25 = load ptr, ptr %m_internalTickCallback35, align 8
  %26 = load float, ptr %timeStep.addr, align 4
  invoke void %25(ptr noundef %this1, float noundef %26)
          to label %invoke.cont36 unwind label %lpad

invoke.cont36:                                    ; preds = %if.then34
  br label %if.end37

if.end37:                                         ; preds = %invoke.cont36, %invoke.cont32
  call void @_ZN14CProfileSampleD1Ev(ptr noundef nonnull align 1 dereferenceable(1) %__profile) #12
  ret void

eh.resume:                                        ; preds = %lpad
  %exn = load ptr, ptr %exn.slot, align 8
  %sel = load i32, ptr %ehselector.slot, align 4
  %lpad.val = insertvalue { ptr, i32 } poison, ptr %exn, 0
  %lpad.val38 = insertvalue { ptr, i32 } %lpad.val, i32 %sel, 1
  resume { ptr, i32 } %lpad.val38
}