; Function Attrs: mustprogress uwtable
define dso_local void @_ZN23btDiscreteDynamicsWorld28internalSingleStepSimulationEf(ptr noundef nonnull align 8 dereferenceable(508) %this, float noundef %timeStep) unnamed_addr #0 align 2 personality ptr @__gxx_personality_v0 {
entry:
  %__profile.i = alloca %class.CProfileSample, align 1
  %__profile = alloca %class.CProfileSample, align 1
  call void @_ZN14CProfileSampleC1EPKc(ptr noundef nonnull align 1 dereferenceable(1) %__profile, ptr noundef nonnull @.str.1)
  %m_internalPreTickCallback = getelementptr inbounds i8, ptr %this, i64 136
  %0 = load ptr, ptr %m_internalPreTickCallback, align 8
  %cmp.not = icmp eq ptr %0, null
  br i1 %cmp.not, label %if.end, label %if.then

if.then:                                          ; preds = %entry
  invoke void %0(ptr noundef nonnull %this, float noundef %timeStep)
          to label %if.end unwind label %lpad

lpad:                                             ; preds = %invoke.cont28, %if.then34, %invoke.cont29, %invoke.cont25, %invoke.cont17, %invoke.cont14, %invoke.cont11, %invoke.cont7, %invoke.cont3, %if.end, %if.then
  %1 = landingpad { ptr, i32 }
          cleanup
  br label %lpad.body

lpad.body:                                        ; preds = %lpad.i, %lpad
  %eh.lpad-body = phi { ptr, i32 } [ %1, %lpad ], [ %15, %lpad.i ]
  call void @_ZN14CProfileSampleD1Ev(ptr noundef nonnull align 1 dereferenceable(1) %__profile) #18
  resume { ptr, i32 } %eh.lpad-body

if.end:                                           ; preds = %if.then, %entry
  %vtable = load ptr, ptr %this, align 8
  %vfn = getelementptr inbounds i8, ptr %vtable, i64 288
  %2 = load ptr, ptr %vfn, align 8
  invoke void %2(ptr noundef nonnull align 8 dereferenceable(508) %this, float noundef %timeStep)
          to label %invoke.cont3 unwind label %lpad

invoke.cont3:                                     ; preds = %if.end
  %m_dispatchInfo.i = getelementptr inbounds i8, ptr %this, i64 48
  store float %timeStep, ptr %m_dispatchInfo.i, align 8
  %m_stepCount = getelementptr inbounds i8, ptr %this, i64 52
  store i32 0, ptr %m_stepCount, align 4
  %vtable5 = load ptr, ptr %this, align 8
  %vfn6 = getelementptr inbounds i8, ptr %vtable5, i64 40
  %3 = load ptr, ptr %vfn6, align 8
  %call8 = invoke noundef ptr %3(ptr noundef nonnull align 8 dereferenceable(121) %this)
          to label %invoke.cont7 unwind label %lpad

invoke.cont7:                                     ; preds = %invoke.cont3
  %m_debugDraw = getelementptr inbounds i8, ptr %this, i64 72
  store ptr %call8, ptr %m_debugDraw, align 8
  %vtable9 = load ptr, ptr %this, align 8
  %vfn10 = getelementptr inbounds i8, ptr %vtable9, i64 328
  %4 = load ptr, ptr %vfn10, align 8
  invoke void %4(ptr noundef nonnull align 8 dereferenceable(508) %this, float noundef %timeStep)
          to label %invoke.cont11 unwind label %lpad

invoke.cont11:                                    ; preds = %invoke.cont7
  %vtable12 = load ptr, ptr %this, align 8
  %vfn13 = getelementptr inbounds i8, ptr %vtable12, i64 96
  %5 = load ptr, ptr %vfn13, align 8
  invoke void %5(ptr noundef nonnull align 8 dereferenceable(121) %this)
          to label %invoke.cont14 unwind label %lpad

invoke.cont14:                                    ; preds = %invoke.cont11
  %vtable15 = load ptr, ptr %this, align 8
  %vfn16 = getelementptr inbounds i8, ptr %vtable15, i64 304
  %6 = load ptr, ptr %vfn16, align 8
  invoke void %6(ptr noundef nonnull align 8 dereferenceable(508) %this)
          to label %invoke.cont17 unwind label %lpad

invoke.cont17:                                    ; preds = %invoke.cont14
  %m_solverInfo.i = getelementptr inbounds i8, ptr %this, i64 152
  %m_timeStep20 = getelementptr inbounds i8, ptr %this, i64 164
  store float %timeStep, ptr %m_timeStep20, align 4
  %vtable23 = load ptr, ptr %this, align 8
  %vfn24 = getelementptr inbounds i8, ptr %vtable23, i64 344
  %7 = load ptr, ptr %vfn24, align 8
  invoke void %7(ptr noundef nonnull align 8 dereferenceable(508) %this, ptr noundef nonnull align 4 dereferenceable(128) %m_solverInfo.i)
          to label %invoke.cont25 unwind label %lpad

invoke.cont25:                                    ; preds = %invoke.cont17
  %vtable26 = load ptr, ptr %this, align 8
  %vfn27 = getelementptr inbounds i8, ptr %vtable26, i64 296
  %8 = load ptr, ptr %vfn27, align 8
  invoke void %8(ptr noundef nonnull align 8 dereferenceable(508) %this, float noundef %timeStep)
          to label %invoke.cont28 unwind label %lpad

invoke.cont28:                                    ; preds = %invoke.cont25
  call void @llvm.lifetime.start.p0(i64 1, ptr nonnull %__profile.i)
  invoke void @_ZN14CProfileSampleC1EPKc(ptr noundef nonnull align 1 dereferenceable(1) %__profile.i, ptr noundef nonnull @.str.2)
          to label %.noexc unwind label %lpad

.noexc:                                           ; preds = %invoke.cont28
  %m_size.i.i = getelementptr inbounds i8, ptr %this, i64 436
  %9 = load i32, ptr %m_size.i.i, align 4
  %cmp3.i = icmp sgt i32 %9, 0
  br i1 %cmp3.i, label %for.body.lr.ph.i, label %invoke.cont29

for.body.lr.ph.i:                                 ; preds = %.noexc
  %m_data.i.i = getelementptr inbounds i8, ptr %this, i64 448
  br label %for.body.i

for.body.i:                                       ; preds = %for.inc.i, %for.body.lr.ph.i
  %indvars.iv.i = phi i64 [ 0, %for.body.lr.ph.i ], [ %indvars.iv.next.i, %for.inc.i ]
  %10 = load ptr, ptr %m_data.i.i, align 8
  %arrayidx.i.i = getelementptr inbounds ptr, ptr %10, i64 %indvars.iv.i
  %11 = load ptr, ptr %arrayidx.i.i, align 8
  %vtable.i = load ptr, ptr %11, align 8
  %vfn.i = getelementptr inbounds i8, ptr %vtable.i, i64 16
  %12 = load ptr, ptr %vfn.i, align 8
  invoke void %12(ptr noundef nonnull align 8 dereferenceable(8) %11, ptr noundef nonnull %this, float noundef %timeStep)
          to label %for.inc.i unwind label %lpad.i

for.inc.i:                                        ; preds = %for.body.i
  %indvars.iv.next.i = add nuw nsw i64 %indvars.iv.i, 1
  %13 = load i32, ptr %m_size.i.i, align 4
  %14 = sext i32 %13 to i64
  %cmp.i = icmp slt i64 %indvars.iv.next.i, %14
  br i1 %cmp.i, label %for.body.i, label %invoke.cont29, !llvm.loop !14

lpad.i:                                           ; preds = %for.body.i
  %15 = landingpad { ptr, i32 }
          cleanup
  call void @_ZN14CProfileSampleD1Ev(ptr noundef nonnull align 1 dereferenceable(1) %__profile.i) #18
  br label %lpad.body

invoke.cont29:                                    ; preds = %for.inc.i, %.noexc
  call void @_ZN14CProfileSampleD1Ev(ptr noundef nonnull align 1 dereferenceable(1) %__profile.i) #18
  call void @llvm.lifetime.end.p0(i64 1, ptr nonnull %__profile.i)
  %vtable30 = load ptr, ptr %this, align 8
  %vfn31 = getelementptr inbounds i8, ptr %vtable30, i64 312
  %16 = load ptr, ptr %vfn31, align 8
  invoke void %16(ptr noundef nonnull align 8 dereferenceable(508) %this, float noundef %timeStep)
          to label %invoke.cont32 unwind label %lpad

invoke.cont32:                                    ; preds = %invoke.cont29
  %m_internalTickCallback = getelementptr inbounds i8, ptr %this, i64 128
  %17 = load ptr, ptr %m_internalTickCallback, align 8
  %cmp33.not = icmp eq ptr %17, null
  br i1 %cmp33.not, label %if.end37, label %if.then34

if.then34:                                        ; preds = %invoke.cont32
  invoke void %17(ptr noundef nonnull %this, float noundef %timeStep)
          to label %if.end37 unwind label %lpad

if.end37:                                         ; preds = %if.then34, %invoke.cont32
  call void @_ZN14CProfileSampleD1Ev(ptr noundef nonnull align 1 dereferenceable(1) %__profile) #18
  ret void
}